; Function Attrs: mustprogress uwtable
define hidden void @_ZN7datalog8mk_slice9init_varsERNS_4ruleE(ptr noundef nonnull align 8 dereferenceable(168) %0, ptr noundef nonnull readonly align 8 captures(none) dereferenceable(80) %1) local_unnamed_addr #3 align 2 {
  %3 = getelementptr inbounds nuw i8, ptr %0, i64 48
  %4 = load ptr, ptr %3, align 8, !tbaa !229
  %.not.i = icmp eq ptr %4, null
  br i1 %.not.i, label %_ZN6vectorIbLb0EjE5resetEv.exit, label %5

5:                                                ; preds = %2
  %6 = getelementptr inbounds i8, ptr %4, i64 -4
  store i32 0, ptr %6, align 4, !tbaa !231
  br label %_ZN6vectorIbLb0EjE5resetEv.exit

_ZN6vectorIbLb0EjE5resetEv.exit:                  ; preds = %2, %5
  %7 = getelementptr inbounds nuw i8, ptr %0, i64 56
  %8 = load ptr, ptr %7, align 8, !tbaa !229
  %.not.i8 = icmp eq ptr %8, null
  br i1 %.not.i8, label %_ZN6vectorIbLb0EjE5resetEv.exit9, label %9

9:                                                ; preds = %_ZN6vectorIbLb0EjE5resetEv.exit
  %10 = getelementptr inbounds i8, ptr %8, i64 -4
  store i32 0, ptr %10, align 4, !tbaa !231
  br label %_ZN6vectorIbLb0EjE5resetEv.exit9

_ZN6vectorIbLb0EjE5resetEv.exit9:                 ; preds = %_ZN6vectorIbLb0EjE5resetEv.exit, %9
  %11 = getelementptr inbounds nuw i8, ptr %0, i64 80
  %12 = load ptr, ptr %11, align 8, !tbaa !229
  %.not.i10 = icmp eq ptr %12, null
  br i1 %.not.i10, label %_ZN6vectorIbLb0EjE5resetEv.exit11, label %13

13:                                               ; preds = %_ZN6vectorIbLb0EjE5resetEv.exit9
  %14 = getelementptr inbounds i8, ptr %12, i64 -4
  store i32 0, ptr %14, align 4, !tbaa !231
  br label %_ZN6vectorIbLb0EjE5resetEv.exit11

_ZN6vectorIbLb0EjE5resetEv.exit11:                ; preds = %_ZN6vectorIbLb0EjE5resetEv.exit9, %13
  %15 = getelementptr inbounds nuw i8, ptr %0, i64 64
  %16 = getelementptr inbounds nuw i8, ptr %0, i64 72
  %17 = load ptr, ptr %16, align 8, !tbaa !230
  %18 = icmp eq ptr %17, null
  br i1 %18, label %_ZN15ref_vector_coreI4expr19ref_manager_wrapperIS0_11ast_managerEE5resetEv.exit, label %_ZNK6vectorIP4exprLb0EjE4sizeEv.exit.i

_ZNK6vectorIP4exprLb0EjE4sizeEv.exit.i:           ; preds = %_ZN6vectorIbLb0EjE5resetEv.exit11
  %19 = getelementptr inbounds i8, ptr %17, i64 -4
  %20 = load i32, ptr %19, align 4, !tbaa !231
  %21 = zext i32 %20 to i64
  %22 = getelementptr inbounds nuw ptr, ptr %17, i64 %21
  %.not.i12 = icmp eq i32 %20, 0
  br i1 %.not.i12, label %_ZN15ref_vector_coreI4expr19ref_manager_wrapperIS0_11ast_managerEE13dec_range_refEPKPS0_S7_.exit.thread4.i, label %.lr.ph.i.i

.lr.ph.i.i:                                       ; preds = %_ZNK6vectorIP4exprLb0EjE4sizeEv.exit.i, %_ZN15ref_vector_coreI4expr19ref_manager_wrapperIS0_11ast_managerEE7dec_refEPS0_.exit.i.i
  %.06.i.i = phi ptr [ %31, %_ZN15ref_vector_coreI4expr19ref_manager_wrapperIS0_11ast_managerEE7dec_refEPS0_.exit.i.i ], [ %17, %_ZNK6vectorIP4exprLb0EjE4sizeEv.exit.i ]
  %23 = load ptr, ptr %.06.i.i, align 8, !tbaa !232
  %24 = load ptr, ptr %15, align 8, !tbaa !233
  %.not.i.i.i.i.i = icmp eq ptr %23, null
  br i1 %.not.i.i.i.i.i, label %_ZN15ref_vector_coreI4expr19ref_manager_wrapperIS0_11ast_managerEE7dec_refEPS0_.exit.i.i, label %25

25:                                               ; preds = %.lr.ph.i.i
  %26 = getelementptr inbounds nuw i8, ptr %23, i64 8
  %27 = load i32, ptr %26, align 4, !tbaa !234
  %28 = add i32 %27, -1
  store i32 %28, ptr %26, align 4, !tbaa !234
  %29 = icmp eq i32 %28, 0
  br i1 %29, label %30, label %_ZN15ref_vector_coreI4expr19ref_manager_wrapperIS0_11ast_managerEE7dec_refEPS0_.exit.i.i

30:                                               ; preds = %25
  tail call void @_ZN11ast_manager11delete_nodeEP3ast(ptr noundef nonnull align 8 dereferenceable(976) %24, ptr noundef nonnull %23)
  br label %_ZN15ref_vector_coreI4expr19ref_manager_wrapperIS0_11ast_managerEE7dec_refEPS0_.exit.i.i

_ZN15ref_vector_coreI4expr19ref_manager_wrapperIS0_11ast_managerEE7dec_refEPS0_.exit.i.i: ; preds = %30, %25, %.lr.ph.i.i
  %31 = getelementptr inbounds nuw i8, ptr %.06.i.i, i64 8
  %32 = icmp ult ptr %31, %22
  br i1 %32, label %.lr.ph.i.i, label %_ZN15ref_vector_coreI4expr19ref_manager_wrapperIS0_11ast_managerEE13dec_range_refEPKPS0_S7_.exit.i, !llvm.loop !236

_ZN15ref_vector_coreI4expr19ref_manager_wrapperIS0_11ast_managerEE13dec_range_refEPKPS0_S7_.exit.i: ; preds = %_ZN15ref_vector_coreI4expr19ref_manager_wrapperIS0_11ast_managerEE7dec_refEPS0_.exit.i.i
  %.pre.i = load ptr, ptr %16, align 8, !tbaa !230
  %.not.i.i = icmp eq ptr %.pre.i, null
  br i1 %.not.i.i, label %_ZN15ref_vector_coreI4expr19ref_manager_wrapperIS0_11ast_managerEE5resetEv.exit, label %_ZN15ref_vector_coreI4expr19ref_manager_wrapperIS0_11ast_managerEE13dec_range_refEPKPS0_S7_.exit.thread4.i

_ZN15ref_vector_coreI4expr19ref_manager_wrapperIS0_11ast_managerEE13dec_range_refEPKPS0_S7_.exit.thread4.i: ; preds = %_ZN15ref_vector_coreI4expr19ref_manager_wrapperIS0_11ast_managerEE13dec_range_refEPKPS0_S7_.exit.i, %_ZNK6vectorIP4exprLb0EjE4sizeEv.exit.i
  %33 = phi ptr [ %.pre.i, %_ZN15ref_vector_coreI4expr19ref_manager_wrapperIS0_11ast_managerEE13dec_range_refEPKPS0_S7_.exit.i ], [ %17, %_ZNK6vectorIP4exprLb0EjE4sizeEv.exit.i ]
  %34 = getelementptr inbounds i8, ptr %33, i64 -4
  store i32 0, ptr %34, align 4, !tbaa !231
  br label %_ZN15ref_vector_coreI4expr19ref_manager_wrapperIS0_11ast_managerEE5resetEv.exit

_ZN15ref_vector_coreI4expr19ref_manager_wrapperIS0_11ast_managerEE5resetEv.exit: ; preds = %_ZN6vectorIbLb0EjE5resetEv.exit11, %_ZN15ref_vector_coreI4expr19ref_manager_wrapperIS0_11ast_managerEE13dec_range_refEPKPS0_S7_.exit.i, %_ZN15ref_vector_coreI4expr19ref_manager_wrapperIS0_11ast_managerEE13dec_range_refEPKPS0_S7_.exit.thread4.i
  %35 = getelementptr inbounds nuw i8, ptr %1, i64 40
  %36 = load ptr, ptr %35, align 8, !tbaa !276
  %37 = getelementptr inbounds nuw i8, ptr %36, i64 16
  %38 = load ptr, ptr %37, align 8, !tbaa !263
  %39 = tail call noundef nonnull align 8 dereferenceable(16) ptr @_ZN7datalog8mk_slice19get_predicate_sliceEP9func_decl(ptr noundef nonnull align 8 dereferenceable(168) %0, ptr noundef %38)
  %40 = getelementptr inbounds nuw i8, ptr %36, i64 24
  %41 = load i32, ptr %40, align 8, !tbaa !267
  %.not.i13 = icmp eq i32 %41, 0
  br i1 %.not.i13, label %_ZN7datalog8mk_slice9init_varsEP3appbb.exit, label %.lr.ph.i

.lr.ph.i:                                         ; preds = %_ZN15ref_vector_coreI4expr19ref_manager_wrapperIS0_11ast_managerEE5resetEv.exit
  %42 = getelementptr inbounds nuw i8, ptr %39, i64 8
  %43 = getelementptr inbounds nuw i8, ptr %36, i64 32
  br label %.lr.ph.split.split.us.i

.lr.ph.split.split.us.i:                          ; preds = %81, %.lr.ph.i
  %indvars.iv26.i = phi i64 [ %indvars.iv.next27.i, %81 ], [ 0, %.lr.ph.i ]
  %44 = getelementptr inbounds nuw [0 x ptr], ptr %43, i64 0, i64 %indvars.iv26.i
  %45 = load ptr, ptr %44, align 8, !tbaa !232
  %46 = getelementptr inbounds nuw i8, ptr %45, i64 4
  %47 = load i32, ptr %46, align 4
  %48 = and i32 %47, 65535
  %49 = icmp eq i32 %48, 1
  br i1 %49, label %60, label %50

50:                                               ; preds = %.lr.ph.split.split.us.i
  %51 = trunc nuw i64 %indvars.iv26.i to i32
  %52 = and i32 %51, 31
  %53 = shl nuw i32 1, %52
  %54 = xor i32 %53, -1
  %55 = load ptr, ptr %42, align 8, !tbaa !253
  %56 = lshr i64 %indvars.iv26.i, 5
  %57 = getelementptr inbounds nuw i32, ptr %55, i64 %56
  %58 = load i32, ptr %57, align 4, !tbaa !231
  %59 = and i32 %58, %54
  store i32 %59, ptr %57, align 4, !tbaa !231
  br label %81

60:                                               ; preds = %.lr.ph.split.split.us.i
  %61 = getelementptr inbounds nuw i8, ptr %45, i64 16
  %62 = load i32, ptr %61, align 8, !tbaa !277
  tail call void @_ZN7datalog8mk_slice7add_varEj(ptr noundef nonnull align 8 dereferenceable(168) %0, i32 noundef %62)
  %63 = load ptr, ptr %7, align 8, !tbaa !229
  %64 = zext i32 %62 to i64
  %65 = getelementptr inbounds nuw i8, ptr %63, i64 %64
  store i8 1, ptr %65, align 1, !tbaa !275
  %66 = load ptr, ptr %42, align 8, !tbaa !253
  %67 = trunc nuw i64 %indvars.iv26.i to i32
  %68 = lshr i64 %indvars.iv26.i, 5
  %69 = getelementptr inbounds nuw i32, ptr %66, i64 %68
  %70 = load i32, ptr %69, align 4, !tbaa !231
  %71 = and i32 %67, 31
  %72 = shl nuw i32 1, %71
  %73 = and i32 %70, %72
  %74 = icmp ne i32 %73, 0
  %75 = load ptr, ptr %11, align 8, !tbaa !229
  %76 = getelementptr inbounds nuw i8, ptr %75, i64 %64
  %77 = load i8, ptr %76, align 1, !tbaa !275, !range !279, !noundef !280
  %78 = icmp ne i8 %77, 0
  %79 = and i1 %74, %78
  %80 = zext i1 %79 to i8
  store i8 %80, ptr %76, align 1, !tbaa !275
  br label %81

81:                                               ; preds = %60, %50
  %indvars.iv.next27.i = add nuw nsw i64 %indvars.iv26.i, 1
  %82 = load i32, ptr %40, align 8, !tbaa !267
  %83 = zext i32 %82 to i64
  %84 = icmp samesign ult i64 %indvars.iv.next27.i, %83
  br i1 %84, label %.lr.ph.split.split.us.i, label %_ZN7datalog8mk_slice9init_varsEP3appbb.exit, !llvm.loop !369

_ZN7datalog8mk_slice9init_varsEP3appbb.exit:      ; preds = %81, %_ZN15ref_vector_coreI4expr19ref_manager_wrapperIS0_11ast_managerEE5resetEv.exit
  %85 = getelementptr inbounds nuw i8, ptr %1, i64 68
  %86 = load i32, ptr %85, align 4, !tbaa !257
  %.not = icmp eq i32 %86, 0
  br i1 %.not, label %._crit_edge, label %.lr.ph

.lr.ph:                                           ; preds = %_ZN7datalog8mk_slice9init_varsEP3appbb.exit
  %87 = getelementptr inbounds nuw i8, ptr %1, i64 80
  br label %88

._crit_edge:                                      ; preds = %88, %_ZN7datalog8mk_slice9init_varsEP3appbb.exit
  ret void

88:                                               ; preds = %.lr.ph, %88
  %indvars.iv = phi i64 [ 0, %.lr.ph ], [ %indvars.iv.next, %88 ]
  %89 = getelementptr inbounds nuw [0 x ptr], ptr %87, i64 0, i64 %indvars.iv
  %90 = load ptr, ptr %89, align 8, !tbaa !262
  %91 = ptrtoint ptr %90 to i64
  %92 = and i64 %91, -8
  %93 = inttoptr i64 %92 to ptr
  %94 = and i64 %91, 7
  %95 = icmp eq i64 %94, 1
  tail call void @_ZN7datalog8mk_slice9init_varsEP3appbb(ptr noundef nonnull align 8 dereferenceable(168) %0, ptr noundef %93, i1 noundef zeroext false, i1 noundef zeroext %95)
  %indvars.iv.next = add nuw nsw i64 %indvars.iv, 1
  %96 = load i32, ptr %85, align 4, !tbaa !257
  %97 = zext i32 %96 to i64
  %98 = icmp samesign ult i64 %indvars.iv.next, %97
  br i1 %98, label %88, label %._crit_edge, !llvm.loop !370
}